; Function Attrs: nounwind uwtable
define hidden ptr @lxb_html_parser_destroy(ptr noundef %0) local_unnamed_addr #0 {
  %2 = icmp eq ptr %0, null
  br i1 %2, label %10, label %3

3:                                                ; preds = %1
  %4 = load ptr, ptr %0, align 8
  %5 = tail call ptr @lxb_html_tokenizer_unref(ptr noundef %4) #7
  store ptr %5, ptr %0, align 8
  %6 = getelementptr inbounds i8, ptr %0, i64 8
  %7 = load ptr, ptr %6, align 8
  %8 = tail call ptr @lxb_html_tree_unref(ptr noundef %7) #7
  store ptr %8, ptr %6, align 8
  %9 = tail call ptr @lexbor_free(ptr noundef nonnull %0) #7
  br label %10

10:                                               ; preds = %1, %3
  %.0 = phi ptr [ %9, %3 ], [ null, %1 ]
  ret ptr %.0
}